target datalayout = "e-m:e-p270:32:32-p271:32:32-p272:64:64-i64:64-i128:128-f80:128-n8:16:32:64-S128"
target triple = "x86_64-pc-linux-gnu"

%"class.icu_77::SortKeyByteSink" = type <{ %"class.icu_77::ByteSink", ptr, i32, i32, i32, [4 x i8] }>
%"class.icu_77::ByteSink" = type { ptr }

; Function Attrs: mustprogress uwtable
define noundef ptr @_ZN6icu_7715SortKeyByteSink15GetAppendBufferEiiPciPi(ptr noundef nonnull align 8 dereferenceable(28) %0, i32 noundef %1, i32 noundef %2, ptr noundef %3, i32 noundef %4, ptr noundef %5) unnamed_addr #1 align 2 {
  %7 = alloca ptr, align 8
  %8 = alloca ptr, align 8
  %9 = alloca i32, align 4
  %10 = alloca i32, align 4
  %11 = alloca ptr, align 8
  %12 = alloca i32, align 4
  %13 = alloca ptr, align 8
  %14 = alloca i32, align 4
  %15 = alloca i32, align 4
  store ptr %0, ptr %8, align 8, !tbaa !23
  store i32 %1, ptr %9, align 4, !tbaa !14
  store i32 %2, ptr %10, align 4, !tbaa !14
  store ptr %3, ptr %11, align 8, !tbaa !17
  store i32 %4, ptr %12, align 4, !tbaa !14
  store ptr %5, ptr %13, align 8, !tbaa !20
  %16 = load ptr, ptr %8, align 8
  %17 = load i32, ptr %9, align 4, !tbaa !14
  %18 = icmp slt i32 %17, 1
  br i1 %18, label %23, label %19

19:                                               ; preds = %6
  %20 = load i32, ptr %12, align 4, !tbaa !14
  %21 = load i32, ptr %9, align 4, !tbaa !14
  %22 = icmp slt i32 %20, %21
  br i1 %22, label %23, label %25

23:                                               ; preds = %19, %6
  %24 = load ptr, ptr %13, align 8, !tbaa !20
  store i32 0, ptr %24, align 4, !tbaa !14
  store ptr null, ptr %7, align 8
  br label %78

25:                                               ; preds = %19
  %26 = getelementptr inbounds nuw %"class.icu_77::SortKeyByteSink", ptr %16, i32 0, i32 4
  %27 = load i32, ptr %26, align 8, !tbaa !25
  %28 = icmp sgt i32 %27, 0
  br i1 %28, label %29, label %33

29:                                               ; preds = %25
  %30 = load i32, ptr %12, align 4, !tbaa !14
  %31 = load ptr, ptr %13, align 8, !tbaa !20
  store i32 %30, ptr %31, align 4, !tbaa !14
  %32 = load ptr, ptr %11, align 8, !tbaa !17
  store ptr %32, ptr %7, align 8
  br label %78

33:                                               ; preds = %25
  call void @llvm.lifetime.start.p0(i64 4, ptr %14) #11
  %34 = getelementptr inbounds nuw %"class.icu_77::SortKeyByteSink", ptr %16, i32 0, i32 2
  %35 = load i32, ptr %34, align 8, !tbaa !30
  %36 = getelementptr inbounds nuw %"class.icu_77::SortKeyByteSink", ptr %16, i32 0, i32 3
  %37 = load i32, ptr %36, align 4, !tbaa !28
  %38 = sub nsw i32 %35, %37
  store i32 %38, ptr %14, align 4, !tbaa !14
  %39 = load i32, ptr %14, align 4, !tbaa !14
  %40 = load i32, ptr %9, align 4, !tbaa !14
  %41 = icmp sge i32 %39, %40
  br i1 %41, label %42, label %51

42:                                               ; preds = %33
  %43 = load i32, ptr %14, align 4, !tbaa !14
  %44 = load ptr, ptr %13, align 8, !tbaa !20
  store i32 %43, ptr %44, align 4, !tbaa !14
  %45 = getelementptr inbounds nuw %"class.icu_77::SortKeyByteSink", ptr %16, i32 0, i32 1
  %46 = load ptr, ptr %45, align 8, !tbaa !29
  %47 = getelementptr inbounds nuw %"class.icu_77::SortKeyByteSink", ptr %16, i32 0, i32 3
  %48 = load i32, ptr %47, align 4, !tbaa !28
  %49 = sext i32 %48 to i64
  %50 = getelementptr inbounds i8, ptr %46, i64 %49
  store ptr %50, ptr %7, align 8
  store i32 1, ptr %15, align 4
  br label %77

51:                                               ; preds = %33
  %52 = load i32, ptr %10, align 4, !tbaa !14
  %53 = getelementptr inbounds nuw %"class.icu_77::SortKeyByteSink", ptr %16, i32 0, i32 3
  %54 = load i32, ptr %53, align 4, !tbaa !28
  %55 = load ptr, ptr %16, align 8, !tbaa !31
  %56 = getelementptr inbounds ptr, ptr %55, i64 6
  %57 = load ptr, ptr %56, align 8
  %58 = call noundef signext i8 %57(ptr noundef nonnull align 8 dereferenceable(28) %16, i32 noundef %52, i32 noundef %54)
  %59 = icmp ne i8 %58, 0
  br i1 %59, label %60, label %73

60:                                               ; preds = %51
  %61 = getelementptr inbounds nuw %"class.icu_77::SortKeyByteSink", ptr %16, i32 0, i32 2
  %62 = load i32, ptr %61, align 8, !tbaa !30
  %63 = getelementptr inbounds nuw %"class.icu_77::SortKeyByteSink", ptr %16, i32 0, i32 3
  %64 = load i32, ptr %63, align 4, !tbaa !28
  %65 = sub nsw i32 %62, %64
  %66 = load ptr, ptr %13, align 8, !tbaa !20
  store i32 %65, ptr %66, align 4, !tbaa !14
  %67 = getelementptr inbounds nuw %"class.icu_77::SortKeyByteSink", ptr %16, i32 0, i32 1
  %68 = load ptr, ptr %67, align 8, !tbaa !29
  %69 = getelementptr inbounds nuw %"class.icu_77::SortKeyByteSink", ptr %16, i32 0, i32 3
  %70 = load i32, ptr %69, align 4, !tbaa !28
  %71 = sext i32 %70 to i64
  %72 = getelementptr inbounds i8, ptr %68, i64 %71
  store ptr %72, ptr %7, align 8
  store i32 1, ptr %15, align 4
  br label %77

73:                                               ; preds = %51
  %74 = load i32, ptr %12, align 4, !tbaa !14
  %75 = load ptr, ptr %13, align 8, !tbaa !20
  store i32 %74, ptr %75, align 4, !tbaa !14
  %76 = load ptr, ptr %11, align 8, !tbaa !17
  store ptr %76, ptr %7, align 8
  store i32 1, ptr %15, align 4
  br label %77

77:                                               ; preds = %73, %60, %42
  call void @llvm.lifetime.end.p0(i64 4, ptr %14) #11
  br label %78

78:                                               ; preds = %77, %29, %23
  %79 = load ptr, ptr %7, align 8
  ret ptr %79
}