; Function Attrs: mustprogress uwtable
define noundef ptr @_ZN6icu_7715SortKeyByteSink15GetAppendBufferEiiPciPi(ptr noundef nonnull align 8 dereferenceable(28) %0, i32 noundef %1, i32 noundef %2, ptr noundef readnone %3, i32 noundef %4, ptr noundef writeonly captures(none) initializes((0, 4)) %5) unnamed_addr #1 align 2 {
  %7 = icmp slt i32 %1, 1
  %8 = icmp slt i32 %4, %1
  %or.cond = or i1 %7, %8
  br i1 %or.cond, label %9, label %10

9:                                                ; preds = %6
  store i32 0, ptr %5, align 4, !tbaa !12
  br label %42

10:                                               ; preds = %6
  %11 = getelementptr inbounds nuw i8, ptr %0, i64 24
  %12 = load i32, ptr %11, align 8, !tbaa !15
  %13 = icmp sgt i32 %12, 0
  br i1 %13, label %14, label %15

14:                                               ; preds = %10
  store i32 %4, ptr %5, align 4, !tbaa !12
  br label %42

15:                                               ; preds = %10
  %16 = getelementptr inbounds nuw i8, ptr %0, i64 16
  %17 = load i32, ptr %16, align 8, !tbaa !20
  %18 = getelementptr inbounds nuw i8, ptr %0, i64 20
  %19 = load i32, ptr %18, align 4, !tbaa !18
  %20 = sub nsw i32 %17, %19
  %.not = icmp slt i32 %20, %1
  br i1 %.not, label %27, label %21

21:                                               ; preds = %15
  store i32 %20, ptr %5, align 4, !tbaa !12
  %22 = getelementptr inbounds nuw i8, ptr %0, i64 8
  %23 = load ptr, ptr %22, align 8, !tbaa !19
  %24 = load i32, ptr %18, align 4, !tbaa !18
  %25 = sext i32 %24 to i64
  %26 = getelementptr inbounds i8, ptr %23, i64 %25
  br label %42

27:                                               ; preds = %15
  %28 = load ptr, ptr %0, align 8, !tbaa !21
  %29 = getelementptr inbounds nuw i8, ptr %28, i64 48
  %30 = load ptr, ptr %29, align 8
  %31 = tail call noundef signext i8 %30(ptr noundef nonnull align 8 dereferenceable(28) %0, i32 noundef %2, i32 noundef %19)
  %.not20 = icmp eq i8 %31, 0
  br i1 %.not20, label %41, label %32

32:                                               ; preds = %27
  %33 = load i32, ptr %16, align 8, !tbaa !20
  %34 = load i32, ptr %18, align 4, !tbaa !18
  %35 = sub nsw i32 %33, %34
  store i32 %35, ptr %5, align 4, !tbaa !12
  %36 = getelementptr inbounds nuw i8, ptr %0, i64 8
  %37 = load ptr, ptr %36, align 8, !tbaa !19
  %38 = load i32, ptr %18, align 4, !tbaa !18
  %39 = sext i32 %38 to i64
  %40 = getelementptr inbounds i8, ptr %37, i64 %39
  br label %42

41:                                               ; preds = %27
  store i32 %4, ptr %5, align 4, !tbaa !12
  br label %42

42:                                               ; preds = %21, %32, %41, %14, %9
  %.0 = phi ptr [ null, %9 ], [ %3, %14 ], [ %26, %21 ], [ %40, %32 ], [ %3, %41 ]
  ret ptr %.0
}